; Function Attrs: mustprogress nounwind uwtable
define internal void @_ZN7testing8internal13SharedPayloadISt10unique_ptrIKNS_16MatcherInterfaceIRKN4absl4SpanINS4_18container_internal12_GLOBAL__N_16Int128EEEEESt14default_deleteISD_EEE7DestroyEPNS0_17SharedPayloadBaseE(ptr noundef %shared) #7 align 2 personality ptr @__gxx_personality_v0 {
entry:
  %isnull = icmp eq ptr %shared, null
  br i1 %isnull, label %delete.end, label %delete.notnull

delete.notnull:                                   ; preds = %entry
  %value.i = getelementptr inbounds i8, ptr %shared, i64 8
  %0 = load ptr, ptr %value.i, align 8
  %cmp.not.i.i = icmp eq ptr %0, null
  br i1 %cmp.not.i.i, label %_ZN7testing8internal13SharedPayloadISt10unique_ptrIKNS_16MatcherInterfaceIRKN4absl4SpanINS4_18container_internal12_GLOBAL__N_16Int128EEEEESt14default_deleteISD_EEED2Ev.exit, label %_ZNKSt14default_deleteIKN7testing16MatcherInterfaceIRKN4absl4SpanINS2_18container_internal12_GLOBAL__N_16Int128EEEEEEclEPSB_.exit.i.i

_ZNKSt14default_deleteIKN7testing16MatcherInterfaceIRKN4absl4SpanINS2_18container_internal12_GLOBAL__N_16Int128EEEEEEclEPSB_.exit.i.i: ; preds = %delete.notnull
  %vtable.i.i.i = load ptr, ptr %0, align 8
  %vfn.i.i.i = getelementptr inbounds i8, ptr %vtable.i.i.i, i64 8
  %1 = load ptr, ptr %vfn.i.i.i, align 8
  tail call void %1(ptr noundef nonnull align 8 dereferenceable(8) %0) #21
  br label %_ZN7testing8internal13SharedPayloadISt10unique_ptrIKNS_16MatcherInterfaceIRKN4absl4SpanINS4_18container_internal12_GLOBAL__N_16Int128EEEEESt14default_deleteISD_EEED2Ev.exit

_ZN7testing8internal13SharedPayloadISt10unique_ptrIKNS_16MatcherInterfaceIRKN4absl4SpanINS4_18container_internal12_GLOBAL__N_16Int128EEEEESt14default_deleteISD_EEED2Ev.exit: ; preds = %delete.notnull, %_ZNKSt14default_deleteIKN7testing16MatcherInterfaceIRKN4absl4SpanINS2_18container_internal12_GLOBAL__N_16Int128EEEEEEclEPSB_.exit.i.i
  tail call void @_ZdlPv(ptr noundef nonnull %shared) #22
  br label %delete.end

delete.end:                                       ; preds = %_ZN7testing8internal13SharedPayloadISt10unique_ptrIKNS_16MatcherInterfaceIRKN4absl4SpanINS4_18container_internal12_GLOBAL__N_16Int128EEEEESt14default_deleteISD_EEED2Ev.exit, %entry
  ret void
}